target datalayout = "e-m:e-p270:32:32-p271:32:32-p272:64:64-i64:64-i128:128-f80:128-n8:16:32:64-S128"
target triple = "x86_64-pc-linux-gnu"

@proto_register_uasip.ett = internal global [2 x ptr] [ptr @ett_uasip, ptr @ett_uasip_tlv], align 16
@.str.42 = private unnamed_addr constant [16 x i8] c"UA/SIP Protocol\00", align 1
@.str.43 = private unnamed_addr constant [6 x i8] c"UASIP\00", align 1
@.str.44 = private unnamed_addr constant [6 x i8] c"uasip\00", align 1
@proto_uasip = internal global i32 0, align 4
@uasip_handle = internal global ptr null, align 8
@.str.45 = private unnamed_addr constant [25 x i8] c"application_octet_stream\00", align 1
@.str.46 = private unnamed_addr constant [7 x i8] c"noesip\00", align 1
@.str.47 = private unnamed_addr constant [22 x i8] c"Try to decode SIP NOE\00", align 1
@.str.48 = private unnamed_addr constant [17 x i8] c"NOE SIP Protocol\00", align 1
@noesip_enabled = internal global i8 0, align 1
@.str.49 = private unnamed_addr constant [13 x i8] c"proxy_ipaddr\00", align 1
@.str.50 = private unnamed_addr constant [17 x i8] c"Proxy IP Address\00", align 1
@.str.51 = private unnamed_addr constant [59 x i8] c"IPv4 address of the proxy (Invalid values will be ignored)\00", align 1
@pref_proxy_ipaddr_s = internal global ptr null, align 8

; Function Attrs: null_pointer_is_valid sspstrong uwtable
define hidden void @proto_register_uasip() #0 {
  %1 = alloca ptr, align 8
  %2 = alloca ptr, align 8
  call void @llvm.lifetime.start.p0(i64 8, ptr %1) #7
  call void @llvm.lifetime.start.p0(i64 8, ptr %2) #7
  %3 = call i32 @proto_register_protocol(ptr noundef @.str.42, ptr noundef @.str.43, ptr noundef @.str.44)
  store i32 %3, ptr @proto_uasip, align 4
  %4 = load i32, ptr @proto_uasip, align 4
  %5 = call ptr @register_dissector(ptr noundef @.str.44, ptr noundef @dissect_uasip, i32 noundef %4)
  store ptr %5, ptr @uasip_handle, align 8
  %6 = load i32, ptr @proto_uasip, align 4
  call void @proto_register_field_array(i32 noundef %6, ptr noundef @proto_register_uasip.hf_uasip, i32 noundef 14)
  call void @proto_register_subtree_array(ptr noundef @proto_register_uasip.ett, i32 noundef 2)
  %7 = load i32, ptr @proto_uasip, align 4
  %8 = call ptr @expert_register_protocol(i32 noundef %7)
  store ptr %8, ptr %2, align 8
  %9 = load ptr, ptr %2, align 8
  call void @expert_register_field_array(ptr noundef %9, ptr noundef @proto_register_uasip.ei, i32 noundef 1)
  %10 = load i32, ptr @proto_uasip, align 4
  %11 = call ptr @prefs_register_protocol(i32 noundef %10, ptr noundef @proto_reg_handoff_uasip)
  store ptr %11, ptr %1, align 8
  %12 = load ptr, ptr %1, align 8
  call void @prefs_register_obsolete_preference(ptr noundef %12, ptr noundef @.str.45)
  %13 = load ptr, ptr %1, align 8
  call void @prefs_register_bool_preference(ptr noundef %13, ptr noundef @.str.46, ptr noundef @.str.47, ptr noundef @.str.48, ptr noundef @noesip_enabled)
  %14 = load ptr, ptr %1, align 8
  call void @prefs_register_string_preference(ptr noundef %14, ptr noundef @.str.49, ptr noundef @.str.50, ptr noundef @.str.51, ptr noundef @pref_proxy_ipaddr_s)
  call void @llvm.lifetime.end.p0(i64 8, ptr %2) #7
  call void @llvm.lifetime.end.p0(i64 8, ptr %1) #7
  ret void
}