; Function Attrs: null_pointer_is_valid sspstrong uwtable
define hidden void @proto_register_uasip() local_unnamed_addr #0 {
  %1 = tail call i32 @proto_register_protocol(ptr noundef nonnull @.str.42, ptr noundef nonnull @.str.43, ptr noundef nonnull @.str.44)
  store i32 %1, ptr @proto_uasip, align 4
  %2 = tail call ptr @register_dissector(ptr noundef nonnull @.str.44, ptr noundef nonnull @dissect_uasip, i32 noundef %1)
  store ptr %2, ptr @uasip_handle, align 8
  %3 = load i32, ptr @proto_uasip, align 4
  tail call void @proto_register_field_array(i32 noundef %3, ptr noundef nonnull @proto_register_uasip.hf_uasip, i32 noundef 14)
  tail call void @proto_register_subtree_array(ptr noundef nonnull @proto_register_uasip.ett, i32 noundef 2)
  %4 = load i32, ptr @proto_uasip, align 4
  %5 = tail call ptr @expert_register_protocol(i32 noundef %4)
  tail call void @expert_register_field_array(ptr noundef %5, ptr noundef nonnull @proto_register_uasip.ei, i32 noundef 1)
  %6 = load i32, ptr @proto_uasip, align 4
  %7 = tail call ptr @prefs_register_protocol(i32 noundef %6, ptr noundef nonnull @proto_reg_handoff_uasip)
  tail call void @prefs_register_obsolete_preference(ptr noundef %7, ptr noundef nonnull @.str.45)
  tail call void @prefs_register_bool_preference(ptr noundef %7, ptr noundef nonnull @.str.46, ptr noundef nonnull @.str.47, ptr noundef nonnull @.str.48, ptr noundef nonnull @noesip_enabled)
  tail call void @prefs_register_string_preference(ptr noundef %7, ptr noundef nonnull @.str.49, ptr noundef nonnull @.str.50, ptr noundef nonnull @.str.51, ptr noundef nonnull @pref_proxy_ipaddr_s)
  ret void
}